; Function Attrs: nounwind uwtable
define ptr @Abc_NtkAssignIDs(ptr noundef %0) local_unnamed_addr #0 {
  %2 = tail call ptr @Abc_NtkDfs(ptr noundef %0, i32 noundef 0) #16
  tail call void @Abc_NtkCleanCopy(ptr noundef %0) #16
  %3 = getelementptr i8, ptr %0, i64 56
  %.val3139 = load ptr, ptr %3, align 8, !tbaa !3
  %4 = getelementptr i8, ptr %.val3139, i64 4
  %.val31.val40 = load i32, ptr %4, align 4, !tbaa !24
  %5 = icmp sgt i32 %.val31.val40, 0
  br i1 %5, label %.lr.ph, label %.critedge.preheader

.critedge.preheader:                              ; preds = %.lr.ph, %1
  %6 = getelementptr i8, ptr %2, i64 4
  %.val43 = load i32, ptr %6, align 4, !tbaa !24
  %7 = icmp sgt i32 %.val43, 0
  br i1 %7, label %.lr.ph45, label %.critedge2.preheader

.lr.ph45:                                         ; preds = %.critedge.preheader
  %8 = getelementptr i8, ptr %2, i64 8
  br label %.critedge

.lr.ph:                                           ; preds = %1, %.lr.ph
  %indvars.iv = phi i64 [ %indvars.iv.next, %.lr.ph ], [ 0, %1 ]
  %.val3142 = phi ptr [ %.val31, %.lr.ph ], [ %.val3139, %1 ]
  %9 = getelementptr i8, ptr %.val3142, i64 8
  %.val35.val = load ptr, ptr %9, align 8, !tbaa !26
  %10 = getelementptr inbounds nuw ptr, ptr %.val35.val, i64 %indvars.iv
  %11 = load ptr, ptr %10, align 8, !tbaa !27
  %12 = getelementptr inbounds nuw i8, ptr %11, i64 64
  %13 = trunc nuw nsw i64 %indvars.iv to i32
  store i32 %13, ptr %12, align 8, !tbaa !28
  %indvars.iv.next = add nuw nsw i64 %indvars.iv, 1
  %.val31 = load ptr, ptr %3, align 8, !tbaa !3
  %14 = getelementptr i8, ptr %.val31, i64 4
  %.val31.val = load i32, ptr %14, align 4, !tbaa !24
  %15 = sext i32 %.val31.val to i64
  %16 = icmp slt i64 %indvars.iv.next, %15
  br i1 %16, label %.lr.ph, label %.critedge.preheader, !llvm.loop !29

.critedge2.preheader:                             ; preds = %.critedge, %.critedge.preheader
  %17 = getelementptr i8, ptr %0, i64 64
  %.val3646 = load ptr, ptr %17, align 8, !tbaa !31
  %18 = getelementptr i8, ptr %.val3646, i64 4
  %.val36.val47 = load i32, ptr %18, align 4, !tbaa !24
  %19 = icmp sgt i32 %.val36.val47, 0
  br i1 %19, label %.critedge2, label %.critedge4

.critedge:                                        ; preds = %.lr.ph45, %.critedge
  %indvars.iv53 = phi i64 [ 0, %.lr.ph45 ], [ %indvars.iv.next54, %.critedge ]
  %.val34 = load ptr, ptr %8, align 8, !tbaa !26
  %20 = getelementptr inbounds nuw ptr, ptr %.val34, i64 %indvars.iv53
  %21 = load ptr, ptr %20, align 8, !tbaa !27
  %.val32 = load ptr, ptr %3, align 8, !tbaa !3
  %22 = getelementptr i8, ptr %.val32, i64 4
  %.val32.val = load i32, ptr %22, align 4, !tbaa !24
  %23 = trunc nuw nsw i64 %indvars.iv53 to i32
  %24 = add nsw i32 %.val32.val, %23
  %25 = getelementptr inbounds nuw i8, ptr %21, i64 64
  store i32 %24, ptr %25, align 8, !tbaa !28
  %indvars.iv.next54 = add nuw nsw i64 %indvars.iv53, 1
  %.val = load i32, ptr %6, align 4, !tbaa !24
  %26 = sext i32 %.val to i64
  %27 = icmp slt i64 %indvars.iv.next54, %26
  br i1 %27, label %.critedge, label %.critedge2.preheader, !llvm.loop !32

.critedge2:                                       ; preds = %.critedge2.preheader, %.critedge2
  %indvars.iv56 = phi i64 [ %indvars.iv.next57, %.critedge2 ], [ 0, %.critedge2.preheader ]
  %.val3649 = phi ptr [ %.val36, %.critedge2 ], [ %.val3646, %.critedge2.preheader ]
  %28 = getelementptr i8, ptr %.val3649, i64 8
  %.val37.val = load ptr, ptr %28, align 8, !tbaa !26
  %29 = getelementptr inbounds nuw ptr, ptr %.val37.val, i64 %indvars.iv56
  %30 = load ptr, ptr %29, align 8, !tbaa !27
  %.val33 = load ptr, ptr %3, align 8, !tbaa !3
  %31 = getelementptr i8, ptr %.val33, i64 4
  %.val33.val = load i32, ptr %31, align 4, !tbaa !24
  %.val30 = load i32, ptr %6, align 4, !tbaa !24
  %32 = trunc nuw nsw i64 %indvars.iv56 to i32
  %33 = add i32 %.val33.val, %32
  %34 = add i32 %33, %.val30
  %35 = getelementptr inbounds nuw i8, ptr %30, i64 64
  store i32 %34, ptr %35, align 8, !tbaa !28
  %indvars.iv.next57 = add nuw nsw i64 %indvars.iv56, 1
  %.val36 = load ptr, ptr %17, align 8, !tbaa !31
  %36 = getelementptr i8, ptr %.val36, i64 4
  %.val36.val = load i32, ptr %36, align 4, !tbaa !24
  %37 = sext i32 %.val36.val to i64
  %38 = icmp slt i64 %indvars.iv.next57, %37
  br i1 %38, label %.critedge2, label %.critedge4, !llvm.loop !33

.critedge4:                                       ; preds = %.critedge2, %.critedge2.preheader
  ret ptr %2
}